target datalayout = "e-m:e-p270:32:32-p271:32:32-p272:64:64-i64:64-i128:128-f80:128-n8:16:32:64-S128"
target triple = "x86_64-pc-linux-gnu"

%struct.st_str_end_key = type { ptr, ptr }
%struct.re_pattern_buffer = type { ptr, i32, i32, i32, i32, i32, i32, i32, i32, i32, i32, i32, i32, i32, ptr, ptr, ptr, ptr, i32, i32, i32, i32, i64, i64, i32, ptr, ptr, [256 x i8], ptr, ptr, i64, i64, i64, ptr }
%struct.NameEntry = type { ptr, i64, i32, i32, i32, ptr }

; Function Attrs: nounwind sspstrong uwtable
define dso_local i32 @onig_st_lookup_strend(ptr noundef %0, ptr noundef %1, ptr noundef %2, ptr noundef %3) #0 {
  %5 = alloca ptr, align 8
  %6 = alloca ptr, align 8
  %7 = alloca ptr, align 8
  %8 = alloca ptr, align 8
  %9 = alloca %struct.st_str_end_key, align 8
  store ptr %0, ptr %5, align 8, !tbaa !12
  store ptr %1, ptr %6, align 8, !tbaa !7
  store ptr %2, ptr %7, align 8, !tbaa !7
  store ptr %3, ptr %8, align 8, !tbaa !24
  call void @llvm.lifetime.start.p0(i64 16, ptr %9) #13
  %10 = load ptr, ptr %6, align 8, !tbaa !7
  %11 = getelementptr inbounds nuw %struct.st_str_end_key, ptr %9, i32 0, i32 0
  store ptr %10, ptr %11, align 8, !tbaa !20
  %12 = load ptr, ptr %7, align 8, !tbaa !7
  %13 = getelementptr inbounds nuw %struct.st_str_end_key, ptr %9, i32 0, i32 1
  store ptr %12, ptr %13, align 8, !tbaa !18
  %14 = load ptr, ptr %5, align 8, !tbaa !12
  %15 = ptrtoint ptr %9 to i64
  %16 = load ptr, ptr %8, align 8, !tbaa !24
  %17 = call i32 @rb_st_lookup(ptr noundef %14, i64 noundef %15, ptr noundef %16)
  call void @llvm.lifetime.end.p0(i64 16, ptr %9) #13
  ret i32 %17
}

; Function Attrs: nounwind sspstrong uwtable
define internal ptr @name_find(ptr noundef %0, ptr noundef %1, ptr noundef %2) #0 {
  %4 = alloca ptr, align 8
  %5 = alloca ptr, align 8
  %6 = alloca ptr, align 8
  %7 = alloca ptr, align 8
  %8 = alloca ptr, align 8
  store ptr %0, ptr %4, align 8, !tbaa !26
  store ptr %1, ptr %5, align 8, !tbaa !7
  store ptr %2, ptr %6, align 8, !tbaa !7
  call void @llvm.lifetime.start.p0(i64 8, ptr %7) #13
  call void @llvm.lifetime.start.p0(i64 8, ptr %8) #13
  %9 = load ptr, ptr %4, align 8, !tbaa !26
  %10 = getelementptr inbounds nuw %struct.re_pattern_buffer, ptr %9, i32 0, i32 17
  %11 = load ptr, ptr %10, align 8, !tbaa !28
  store ptr %11, ptr %8, align 8, !tbaa !32
  store ptr null, ptr %7, align 8, !tbaa !12
  %12 = load ptr, ptr %8, align 8, !tbaa !32
  %13 = icmp ne ptr %12, null
  br i1 %13, label %14, label %19

14:                                               ; preds = %3
  %15 = load ptr, ptr %8, align 8, !tbaa !32
  %16 = load ptr, ptr %5, align 8, !tbaa !7
  %17 = load ptr, ptr %6, align 8, !tbaa !7
  %18 = call i32 @onig_st_lookup_strend(ptr noundef %15, ptr noundef %16, ptr noundef %17, ptr noundef %7)
  br label %19

19:                                               ; preds = %14, %3
  %20 = load ptr, ptr %7, align 8, !tbaa !12
  call void @llvm.lifetime.end.p0(i64 8, ptr %8) #13
  call void @llvm.lifetime.end.p0(i64 8, ptr %7) #13
  ret ptr %20
}

; Function Attrs: nounwind sspstrong uwtable
define dso_local i32 @onig_name_to_group_numbers(ptr noundef %0, ptr noundef %1, ptr noundef %2, ptr noundef %3) #0 {
  %5 = alloca i32, align 4
  %6 = alloca ptr, align 8
  %7 = alloca ptr, align 8
  %8 = alloca ptr, align 8
  %9 = alloca ptr, align 8
  %10 = alloca ptr, align 8
  %11 = alloca i32, align 4
  store ptr %0, ptr %6, align 8, !tbaa !26
  store ptr %1, ptr %7, align 8, !tbaa !7
  store ptr %2, ptr %8, align 8, !tbaa !7
  store ptr %3, ptr %9, align 8, !tbaa !56
  call void @llvm.lifetime.start.p0(i64 8, ptr %10) #13
  %12 = load ptr, ptr %6, align 8, !tbaa !26
  %13 = load ptr, ptr %7, align 8, !tbaa !7
  %14 = load ptr, ptr %8, align 8, !tbaa !7
  %15 = call ptr @name_find(ptr noundef %12, ptr noundef %13, ptr noundef %14)
  store ptr %15, ptr %10, align 8, !tbaa !12
  %16 = load ptr, ptr %10, align 8, !tbaa !12
  %17 = icmp eq ptr %16, null
  br i1 %17, label %18, label %19

18:                                               ; preds = %4
  store i32 -217, ptr %5, align 4
  store i32 1, ptr %11, align 4
  br label %38

19:                                               ; preds = %4
  %20 = load ptr, ptr %10, align 8, !tbaa !12
  %21 = getelementptr inbounds nuw %struct.NameEntry, ptr %20, i32 0, i32 2
  %22 = load i32, ptr %21, align 8, !tbaa !48
  switch i32 %22, label %29 [
    i32 0, label %23
    i32 1, label %25
  ]

23:                                               ; preds = %19
  %24 = load ptr, ptr %9, align 8, !tbaa !56
  store ptr null, ptr %24, align 8, !tbaa !45
  br label %34

25:                                               ; preds = %19
  %26 = load ptr, ptr %10, align 8, !tbaa !12
  %27 = getelementptr inbounds nuw %struct.NameEntry, ptr %26, i32 0, i32 4
  %28 = load ptr, ptr %9, align 8, !tbaa !56
  store ptr %27, ptr %28, align 8, !tbaa !45
  br label %34

29:                                               ; preds = %19
  %30 = load ptr, ptr %10, align 8, !tbaa !12
  %31 = getelementptr inbounds nuw %struct.NameEntry, ptr %30, i32 0, i32 5
  %32 = load ptr, ptr %31, align 8, !tbaa !51
  %33 = load ptr, ptr %9, align 8, !tbaa !56
  store ptr %32, ptr %33, align 8, !tbaa !45
  br label %34

34:                                               ; preds = %29, %25, %23
  %35 = load ptr, ptr %10, align 8, !tbaa !12
  %36 = getelementptr inbounds nuw %struct.NameEntry, ptr %35, i32 0, i32 2
  %37 = load i32, ptr %36, align 8, !tbaa !48
  store i32 %37, ptr %5, align 4
  store i32 1, ptr %11, align 4
  br label %38

38:                                               ; preds = %34, %18
  call void @llvm.lifetime.end.p0(i64 8, ptr %10) #13
  %39 = load i32, ptr %5, align 4
  ret i32 %39
}