; Function Attrs: nounwind sspstrong uwtable
define dso_local noundef i32 @onig_name_to_group_numbers(ptr noundef readonly captures(none) %0, ptr noundef %1, ptr noundef %2, ptr noundef writeonly captures(none) %3) local_unnamed_addr #5 {
  %5 = alloca %struct.st_str_end_key, align 8
  %6 = alloca ptr, align 8
  %7 = getelementptr i8, ptr %0, i64 88
  %.val = load ptr, ptr %7, align 8, !tbaa !21
  call void @llvm.lifetime.start.p0(i64 8, ptr nonnull %6) #25
  store ptr null, ptr %6, align 8, !tbaa !7
  %.not.i = icmp eq ptr %.val, null
  br i1 %.not.i, label %name_find.exit.thread, label %name_find.exit

name_find.exit.thread:                            ; preds = %4
  call void @llvm.lifetime.end.p0(i64 8, ptr nonnull %6) #25
  br label %21

name_find.exit:                                   ; preds = %4
  call void @llvm.lifetime.start.p0(i64 16, ptr nonnull %5) #25
  store ptr %1, ptr %5, align 8, !tbaa !17
  %8 = getelementptr inbounds nuw i8, ptr %5, i64 8
  store ptr %2, ptr %8, align 8, !tbaa !14
  %9 = ptrtoint ptr %5 to i64
  %10 = call i32 @rb_st_lookup(ptr noundef nonnull %.val, i64 noundef %9, ptr noundef nonnull %6) #25
  call void @llvm.lifetime.end.p0(i64 16, ptr nonnull %5) #25
  %.pre.i = load ptr, ptr %6, align 8, !tbaa !7
  call void @llvm.lifetime.end.p0(i64 8, ptr nonnull %6) #25
  %11 = icmp eq ptr %.pre.i, null
  br i1 %11, label %21, label %12

12:                                               ; preds = %name_find.exit
  %13 = getelementptr inbounds nuw i8, ptr %.pre.i, i64 16
  %14 = load i32, ptr %13, align 8, !tbaa !41
  switch i32 %14, label %18 [
    i32 0, label %15
    i32 1, label %16
  ]

15:                                               ; preds = %12
  store ptr null, ptr %3, align 8, !tbaa !51
  br label %21

16:                                               ; preds = %12
  %17 = getelementptr inbounds nuw i8, ptr %.pre.i, i64 24
  store ptr %17, ptr %3, align 8, !tbaa !51
  br label %21

18:                                               ; preds = %12
  %19 = getelementptr inbounds nuw i8, ptr %.pre.i, i64 32
  %20 = load ptr, ptr %19, align 8, !tbaa !44
  store ptr %20, ptr %3, align 8, !tbaa !51
  br label %21

21:                                               ; preds = %15, %16, %18, %name_find.exit.thread, %name_find.exit
  %.0 = phi i32 [ -217, %name_find.exit ], [ -217, %name_find.exit.thread ], [ %14, %18 ], [ 1, %16 ], [ 0, %15 ]
  ret i32 %.0
}